target datalayout = "e-m:e-p270:32:32-p271:32:32-p272:64:64-i64:64-i128:128-f80:128-n8:16:32:64-S128"
target triple = "x86_64-pc-linux-gnu"

; Function Attrs: nounwind uwtable
define ptr @ff_planar_sample_fmts() #0 {
  %1 = alloca ptr, align 8
  %2 = alloca ptr, align 8
  %3 = alloca i32, align 4
  %4 = alloca i32, align 4
  call void @llvm.lifetime.start.p0(i64 8, ptr %2) #7
  store ptr null, ptr %2, align 8, !tbaa !27
  call void @llvm.lifetime.start.p0(i64 4, ptr %3) #7
  store i32 0, ptr %3, align 4, !tbaa !21
  br label %5

5:                                                ; preds = %21, %0
  %6 = load i32, ptr %3, align 4, !tbaa !21
  %7 = call i32 @av_get_bytes_per_sample(i32 noundef %6)
  %8 = icmp sgt i32 %7, 0
  br i1 %8, label %9, label %24

9:                                                ; preds = %5
  %10 = load i32, ptr %3, align 4, !tbaa !21
  %11 = call i32 @av_sample_fmt_is_planar(i32 noundef %10)
  %12 = icmp ne i32 %11, 0
  br i1 %12, label %13, label %20

13:                                               ; preds = %9
  %14 = load i32, ptr %3, align 4, !tbaa !21
  %15 = sext i32 %14 to i64
  %16 = call i32 @ff_add_format(ptr noundef %2, i64 noundef %15)
  %17 = icmp slt i32 %16, 0
  br i1 %17, label %18, label %19

18:                                               ; preds = %13
  store ptr null, ptr %1, align 8
  store i32 1, ptr %4, align 4
  br label %26

19:                                               ; preds = %13
  br label %20

20:                                               ; preds = %19, %9
  br label %21

21:                                               ; preds = %20
  %22 = load i32, ptr %3, align 4, !tbaa !21
  %23 = add nsw i32 %22, 1
  store i32 %23, ptr %3, align 4, !tbaa !21
  br label %5, !llvm.loop !66

24:                                               ; preds = %5
  %25 = load ptr, ptr %2, align 8, !tbaa !27
  store ptr %25, ptr %1, align 8
  store i32 1, ptr %4, align 4
  br label %26

26:                                               ; preds = %24, %18
  call void @llvm.lifetime.end.p0(i64 4, ptr %3) #7
  call void @llvm.lifetime.end.p0(i64 8, ptr %2) #7
  %27 = load ptr, ptr %1, align 8
  ret ptr %27
}