; Function Attrs: nounwind uwtable
define ptr @ff_planar_sample_fmts() local_unnamed_addr #3 {
  %1 = alloca ptr, align 8
  call void @llvm.lifetime.start.p0(i64 8, ptr nonnull %1) #10
  store ptr null, ptr %1, align 8, !tbaa !23
  %2 = tail call i32 @av_get_bytes_per_sample(i32 noundef 0) #10
  %3 = icmp sgt i32 %2, 0
  br i1 %3, label %.lr.ph, label %.loopexit

.lr.ph:                                           ; preds = %0, %9
  %indvars.iv = phi i64 [ %indvars.iv.next, %9 ], [ 0, %0 ]
  %4 = trunc nuw nsw i64 %indvars.iv to i32
  %5 = call i32 @av_sample_fmt_is_planar(i32 noundef %4) #10
  %.not = icmp eq i32 %5, 0
  br i1 %.not, label %9, label %6

6:                                                ; preds = %.lr.ph
  %7 = call i32 @ff_add_format(ptr noundef nonnull %1, i64 noundef %indvars.iv)
  %8 = icmp slt i32 %7, 0
  br i1 %8, label %.loopexit, label %9

9:                                                ; preds = %.lr.ph, %6
  %indvars.iv.next = add nuw nsw i64 %indvars.iv, 1
  %10 = trunc nuw i64 %indvars.iv.next to i32
  %11 = call i32 @av_get_bytes_per_sample(i32 noundef %10) #10
  %12 = icmp sgt i32 %11, 0
  br i1 %12, label %.lr.ph, label %._crit_edge.loopexit, !llvm.loop !59

._crit_edge.loopexit:                             ; preds = %9
  %.pre = load ptr, ptr %1, align 8, !tbaa !23
  br label %.loopexit

.loopexit:                                        ; preds = %6, %0, %._crit_edge.loopexit
  %.04 = phi ptr [ %.pre, %._crit_edge.loopexit ], [ null, %0 ], [ null, %6 ]
  call void @llvm.lifetime.end.p0(i64 8, ptr nonnull %1) #10
  ret ptr %.04
}